target datalayout = "e-m:e-p270:32:32-p271:32:32-p272:64:64-i64:64-i128:128-f80:128-n8:16:32:64-S128"
target triple = "x86_64-pc-linux-gnu"

@g_assert_poison = external global ptr, align 8
@.str = private unnamed_addr constant [32 x i8] c"src/hotspot/share/prims/jni.cpp\00", align 1
@.str.4 = private unnamed_addr constant [66 x i8] c"guarantee(jfieldIDWorkaround::is_instance_jfieldID(k, id)) failed\00", align 1
@.str.5 = private unnamed_addr constant [26 x i8] c"must be an instance field\00", align 1
@.str.6 = private unnamed_addr constant [72 x i8] c"guarantee(InstanceKlass::cast(k)->contains_field_offset(offset)) failed\00", align 1
@.str.7 = private unnamed_addr constant [68 x i8] c"Bug in native code: jfieldID offset must address interior of object\00", align 1

; Function Attrs: mustprogress nounwind uwtable
define linkonce_odr hidden noundef ptr @_ZN13InstanceKlass4castEPK5Klass(ptr noundef %0) #1 comdat align 2 {
  %2 = alloca ptr, align 8
  store ptr %0, ptr %2, align 8
  %3 = load ptr, ptr %2, align 8
  ret ptr %3
}

; Function Attrs: mustprogress nounwind uwtable
define linkonce_odr hidden noundef i32 @_Z12checked_castIimET_T0_(i64 noundef %0) #1 comdat {
  %2 = alloca i64, align 8
  %3 = alloca i32, align 4
  store i64 %0, ptr %2, align 8
  %4 = load i64, ptr %2, align 8
  %5 = trunc i64 %4 to i32
  store i32 %5, ptr %3, align 4
  %6 = load i32, ptr %3, align 4
  ret i32 %6
}

; Function Attrs: mustprogress nounwind uwtable
define linkonce_odr hidden noundef ptr @_ZN13InstanceKlass4castEP5Klass(ptr noundef %0) #1 comdat align 2 {
  %2 = alloca ptr, align 8
  store ptr %0, ptr %2, align 8
  %3 = load ptr, ptr %2, align 8
  %4 = call noundef ptr @_ZN13InstanceKlass4castEPK5Klass(ptr noundef %3)
  ret ptr %4
}

; Function Attrs: mustprogress nounwind uwtable
define linkonce_odr hidden noundef i32 @_ZN18jfieldIDWorkaround19raw_instance_offsetEP9_jfieldID(ptr noundef %0) #1 comdat align 2 {
  %2 = alloca ptr, align 8
  %3 = alloca i64, align 8
  store ptr %0, ptr %2, align 8
  %4 = load ptr, ptr %2, align 8
  %5 = ptrtoint ptr %4 to i64
  %6 = lshr i64 %5, 2
  store i64 %6, ptr %3, align 8
  %7 = load i64, ptr %3, align 8
  %8 = call noundef i32 @_Z12checked_castIimET_T0_(i64 noundef %7)
  ret i32 %8
}

; Function Attrs: mustprogress nounwind uwtable
define linkonce_odr hidden noundef zeroext i1 @_ZN18jfieldIDWorkaround20is_instance_jfieldIDEP5KlassP9_jfieldID(ptr noundef %0, ptr noundef %1) #1 comdat align 2 {
  %3 = alloca ptr, align 8
  %4 = alloca ptr, align 8
  %5 = alloca i64, align 8
  store ptr %0, ptr %3, align 8
  store ptr %1, ptr %4, align 8
  %6 = load ptr, ptr %4, align 8
  %7 = ptrtoint ptr %6 to i64
  store i64 %7, ptr %5, align 8
  %8 = load i64, ptr %5, align 8
  %9 = and i64 %8, 2
  %10 = icmp ne i64 %9, 0
  ret i1 %10
}

; Function Attrs: mustprogress nounwind uwtable
define hidden void @_ZN18jfieldIDWorkaround24verify_instance_jfieldIDEP5KlassP9_jfieldID(ptr noundef %0, ptr noundef %1) #1 align 2 {
  %3 = alloca ptr, align 8
  %4 = alloca ptr, align 8
  %5 = alloca i64, align 8
  %6 = alloca i32, align 4
  store ptr %0, ptr %3, align 8
  store ptr %1, ptr %4, align 8
  br label %7

7:                                                ; preds = %2
  %8 = load ptr, ptr %3, align 8
  %9 = load ptr, ptr %4, align 8
  %10 = call noundef zeroext i1 @_ZN18jfieldIDWorkaround20is_instance_jfieldIDEP5KlassP9_jfieldID(ptr noundef %8, ptr noundef %9)
  br i1 %10, label %13, label %11

11:                                               ; preds = %7
  %12 = load ptr, ptr @g_assert_poison, align 8
  store i8 88, ptr %12, align 1
  call void (ptr, i32, ptr, ptr, ...) @_Z15report_vm_errorPKciS0_S0_z(ptr noundef @.str, i32 noundef 250, ptr noundef @.str.4, ptr noundef @.str.5) #9
  unreachable

13:                                               ; preds = %7
  br label %14

14:                                               ; preds = %13
  %15 = load ptr, ptr %4, align 8
  %16 = ptrtoint ptr %15 to i64
  store i64 %16, ptr %5, align 8
  %17 = load ptr, ptr %4, align 8
  %18 = call noundef i32 @_ZN18jfieldIDWorkaround19raw_instance_offsetEP9_jfieldID(ptr noundef %17)
  store i32 %18, ptr %6, align 4
  br label %19

19:                                               ; preds = %14
  %20 = load ptr, ptr %3, align 8
  %21 = call noundef ptr @_ZN13InstanceKlass4castEP5Klass(ptr noundef %20)
  %22 = load i32, ptr %6, align 4
  %23 = call noundef zeroext i1 @_ZN13InstanceKlass21contains_field_offsetEi(ptr noundef nonnull align 8 dereferenceable(464) %21, i32 noundef %22)
  br i1 %23, label %26, label %24

24:                                               ; preds = %19
  %25 = load ptr, ptr @g_assert_poison, align 8
  store i8 88, ptr %25, align 1
  call void (ptr, i32, ptr, ptr, ...) @_Z15report_vm_errorPKciS0_S0_z(ptr noundef @.str, i32 noundef 269, ptr noundef @.str.6, ptr noundef @.str.7) #9
  unreachable

26:                                               ; preds = %19
  br label %27

27:                                               ; preds = %26
  ret void
}