; Function Attrs: mustprogress nounwind uwtable
define hidden void @_ZN18jfieldIDWorkaround24verify_instance_jfieldIDEP5KlassP9_jfieldID(ptr noundef %0, ptr noundef %1) local_unnamed_addr #0 align 2 {
  %3 = ptrtoint ptr %1 to i64
  %4 = and i64 %3, 2
  %.not = icmp eq i64 %4, 0
  br i1 %.not, label %5, label %7

5:                                                ; preds = %2
  %6 = load ptr, ptr @g_assert_poison, align 8
  store i8 88, ptr %6, align 1
  tail call void (ptr, i32, ptr, ptr, ...) @_Z15report_vm_errorPKciS0_S0_z(ptr noundef nonnull @.str, i32 noundef 250, ptr noundef nonnull @.str.4, ptr noundef nonnull @.str.5) #15
  unreachable

7:                                                ; preds = %2
  %8 = lshr i64 %3, 2
  %9 = trunc i64 %8 to i32
  %10 = tail call noundef zeroext i1 @_ZN13InstanceKlass21contains_field_offsetEi(ptr noundef nonnull align 8 dereferenceable(464) %0, i32 noundef %9) #14
  br i1 %10, label %13, label %11

11:                                               ; preds = %7
  %12 = load ptr, ptr @g_assert_poison, align 8
  store i8 88, ptr %12, align 1
  tail call void (ptr, i32, ptr, ptr, ...) @_Z15report_vm_errorPKciS0_S0_z(ptr noundef nonnull @.str, i32 noundef 269, ptr noundef nonnull @.str.6, ptr noundef nonnull @.str.7) #15
  unreachable

13:                                               ; preds = %7
  ret void
}